; Function Attrs: nounwind uwtable
define dso_local i32 @LZ4_compress_HC_extStateHC_fastReset(ptr noundef %0, ptr noundef %1, ptr noundef %2, i32 noundef %3, i32 noundef %4, i32 noundef %5) local_unnamed_addr #4 {
  %7 = alloca i32, align 4
  store i32 %3, ptr %7, align 4, !tbaa !17
  %8 = ptrtoint ptr %0 to i64
  %9 = and i64 %8, 7
  %.not = icmp eq i64 %9, 0
  br i1 %.not, label %10, label %48

10:                                               ; preds = %6
  %11 = getelementptr inbounds nuw i8, ptr %0, i64 262183
  %12 = load i8, ptr %11, align 1, !tbaa !31
  %.not.i = icmp eq i8 %12, 0
  br i1 %.not.i, label %LZ4_resetStreamHC_fast.exit, label %LZ4_resetStreamHC_fast.exit.thread

LZ4_resetStreamHC_fast.exit.thread:               ; preds = %10
  tail call void @llvm.memset.p0.i64(ptr noundef nonnull align 8 dereferenceable(262192) %0, i8 0, i64 262192, i1 false)
  %13 = icmp slt i32 %5, 1
  %14 = tail call i32 @llvm.umin.i32(i32 %5, i32 12)
  %15 = trunc nuw nsw i32 %14 to i16
  %16 = select i1 %13, i16 9, i16 %15
  %17 = getelementptr inbounds nuw i8, ptr %0, i64 262180
  store i16 %16, ptr %17, align 4, !tbaa !26
  br label %LZ4HC_init_internal.exit

LZ4_resetStreamHC_fast.exit:                      ; preds = %10
  %18 = getelementptr inbounds nuw i8, ptr %0, i64 262144
  %19 = load ptr, ptr %18, align 8, !tbaa !4
  %20 = getelementptr inbounds nuw i8, ptr %0, i64 262152
  %21 = load ptr, ptr %20, align 8, !tbaa !13
  %22 = ptrtoint ptr %19 to i64
  %23 = ptrtoint ptr %21 to i64
  %24 = sub i64 %22, %23
  %25 = trunc i64 %24 to i32
  %26 = getelementptr inbounds nuw i8, ptr %0, i64 262168
  %27 = load i32, ptr %26, align 8, !tbaa !14
  %28 = add i32 %27, %25
  %29 = getelementptr inbounds nuw i8, ptr %0, i64 262184
  store ptr null, ptr %29, align 8, !tbaa !32
  tail call void @llvm.memset.p0.i64(ptr noundef nonnull align 8 dereferenceable(16) %18, i8 0, i64 16, i1 false)
  %30 = icmp slt i32 %5, 1
  %31 = tail call i32 @llvm.umin.i32(i32 %5, i32 12)
  %32 = trunc nuw nsw i32 %31 to i16
  %33 = select i1 %30, i16 9, i16 %32
  %34 = getelementptr inbounds nuw i8, ptr %0, i64 262180
  store i16 %33, ptr %34, align 4, !tbaa !26
  %35 = icmp ugt i32 %28, 1073741824
  br i1 %35, label %36, label %LZ4HC_init_internal.exit

36:                                               ; preds = %LZ4_resetStreamHC_fast.exit
  tail call void @llvm.memset.p0.i64(ptr noundef nonnull align 8 dereferenceable(131072) %0, i8 0, i64 131072, i1 false)
  %37 = getelementptr inbounds nuw i8, ptr %0, i64 131072
  tail call void @llvm.memset.p0.i64(ptr noundef nonnull align 8 dereferenceable(131072) %37, i8 -1, i64 131072, i1 false)
  br label %LZ4HC_init_internal.exit

LZ4HC_init_internal.exit:                         ; preds = %LZ4_resetStreamHC_fast.exit.thread, %LZ4_resetStreamHC_fast.exit, %36
  %.0.i = phi i32 [ 0, %36 ], [ %28, %LZ4_resetStreamHC_fast.exit ], [ 0, %LZ4_resetStreamHC_fast.exit.thread ]
  %38 = getelementptr inbounds nuw i8, ptr %0, i64 262144
  %39 = getelementptr inbounds nuw i8, ptr %0, i64 262152
  %40 = getelementptr inbounds nuw i8, ptr %0, i64 262168
  %41 = add nuw nsw i32 %.0.i, 65536
  %42 = getelementptr inbounds nuw i8, ptr %0, i64 262176
  store i32 %41, ptr %42, align 8, !tbaa !33
  store ptr %1, ptr %39, align 8, !tbaa !13
  store ptr %1, ptr %38, align 8, !tbaa !4
  %43 = getelementptr inbounds nuw i8, ptr %0, i64 262160
  store ptr %1, ptr %43, align 8, !tbaa !34
  store i32 %41, ptr %40, align 8, !tbaa !14
  %44 = getelementptr inbounds nuw i8, ptr %0, i64 262172
  store i32 %41, ptr %44, align 4, !tbaa !35
  %45 = tail call i32 @LZ4_compressBound(i32 noundef %3) #18
  %46 = icmp slt i32 %4, %45
  %. = zext i1 %46 to i32
  %47 = call fastcc i32 @LZ4HC_compress_generic(ptr noundef nonnull %0, ptr noundef %1, ptr noundef %2, ptr noundef nonnull %7, i32 noundef %4, i32 noundef %5, i32 noundef %.)
  br label %48

48:                                               ; preds = %LZ4HC_init_internal.exit, %6
  %.0 = phi i32 [ 0, %6 ], [ %47, %LZ4HC_init_internal.exit ]
  ret i32 %.0
}